; Function Attrs: mustprogress nounwind uwtable
define hidden noundef ptr @_ZN16java_lang_String19create_oop_from_strEPKcP10JavaThread(ptr noundef %0, ptr noundef %1) local_unnamed_addr #0 align 2 {
  %3 = tail call ptr @_ZN16java_lang_String15create_from_strEPKcP10JavaThread(ptr noundef %0, ptr noundef %1)
  %4 = getelementptr inbounds i8, ptr %1, i64 8
  %5 = load ptr, ptr %4, align 8
  %6 = icmp ne ptr %5, null
  %7 = icmp eq ptr %3, null
  %or.cond = or i1 %7, %6
  br i1 %or.cond, label %_ZNK6HandleclEv.exit, label %8

8:                                                ; preds = %2
  %9 = load ptr, ptr %3, align 8
  br label %_ZNK6HandleclEv.exit

_ZNK6HandleclEv.exit:                             ; preds = %8, %2
  %.0 = phi ptr [ null, %2 ], [ %9, %8 ]
  ret ptr %.0
}